; Function Attrs: mustprogress nounwind uwtable
define internal noundef zeroext i1 @_ZN4llvm20MCAsmParserExtension15HandleDirectiveIN12_GLOBAL__N_115DarwinAsmParserETnMT_FbNS_9StringRefENS_5SMLocEEXadL_ZNS3_31parseSectionDirectiveDestructorES5_S6_EEEEbPS0_S5_S6_(ptr nocapture noundef readonly %0, ptr nocapture readnone %1, i64 %2, ptr nocapture readnone %3) #0 align 2 {
  %5 = alloca %"class.llvm::Twine", align 8
  call void @llvm.lifetime.start.p0(i64 40, ptr nonnull %5)
  %6 = getelementptr inbounds nuw i8, ptr %0, i64 8
  %7 = load ptr, ptr %6, align 8
  %8 = load ptr, ptr %7, align 8
  %9 = getelementptr inbounds i8, ptr %8, i64 40
  %10 = load ptr, ptr %9, align 8
  %11 = tail call noundef nonnull align 8 dereferenceable(144) ptr %10(ptr noundef nonnull align 8 dereferenceable(34) %7) #15
  %12 = getelementptr inbounds nuw i8, ptr %11, i64 8
  %13 = load ptr, ptr %12, align 8
  %14 = load i32, ptr %13, align 8
  %.not16.i.i = icmp eq i32 %14, 9
  br i1 %.not16.i.i, label %20, label %15

15:                                               ; preds = %4
  %16 = getelementptr inbounds nuw i8, ptr %5, i64 32
  %17 = getelementptr inbounds nuw i8, ptr %5, i64 33
  store i8 1, ptr %17, align 1
  store ptr @.str.130, ptr %5, align 8
  store i8 3, ptr %16, align 8
  %18 = load ptr, ptr %6, align 8
  %19 = call noundef zeroext i1 @_ZN4llvm11MCAsmParser8TokErrorERKNS_5TwineENS_7SMRangeE(ptr noundef nonnull align 8 dereferenceable(34) %18, ptr noundef nonnull align 8 dereferenceable(34) %5, ptr null, ptr null) #15
  br label %_ZN12_GLOBAL__N_115DarwinAsmParser31parseSectionDirectiveDestructorEN4llvm9StringRefENS1_5SMLocE.exit

20:                                               ; preds = %4
  %21 = load ptr, ptr %6, align 8
  %22 = load ptr, ptr %21, align 8
  %23 = getelementptr inbounds i8, ptr %22, i64 184
  %24 = load ptr, ptr %23, align 8
  %25 = tail call noundef nonnull align 8 dereferenceable(40) ptr %24(ptr noundef nonnull align 8 dereferenceable(34) %21) #15
  %26 = load ptr, ptr %6, align 8
  %27 = load ptr, ptr %26, align 8
  %28 = getelementptr inbounds i8, ptr %27, i64 56
  %29 = load ptr, ptr %28, align 8
  %30 = tail call noundef nonnull align 8 dereferenceable(288) ptr %29(ptr noundef nonnull align 8 dereferenceable(34) %26) #15
  %31 = load ptr, ptr %6, align 8
  %32 = load ptr, ptr %31, align 8
  %33 = getelementptr inbounds i8, ptr %32, i64 48
  %34 = load ptr, ptr %33, align 8
  %35 = tail call noundef nonnull align 8 dereferenceable(2432) ptr %34(ptr noundef nonnull align 8 dereferenceable(34) %31) #15
  %36 = tail call noundef ptr @_ZN4llvm9MCContext15getMachOSectionENS_9StringRefES1_jjNS_11SectionKindEPKc(ptr noundef nonnull align 8 dereferenceable(2432) %35, ptr nonnull @.str.99, i64 6, ptr nonnull @.str.133, i64 12, i32 noundef 0, i32 noundef 0, i32 19, ptr noundef null) #15
  %37 = load ptr, ptr %30, align 8
  %38 = getelementptr inbounds i8, ptr %37, i64 168
  %39 = load ptr, ptr %38, align 8
  tail call void %39(ptr noundef nonnull align 8 dereferenceable(288) %30, ptr noundef %36, i32 noundef 0) #15
  br label %_ZN12_GLOBAL__N_115DarwinAsmParser31parseSectionDirectiveDestructorEN4llvm9StringRefENS1_5SMLocE.exit

_ZN12_GLOBAL__N_115DarwinAsmParser31parseSectionDirectiveDestructorEN4llvm9StringRefENS1_5SMLocE.exit: ; preds = %15, %20
  %.0.i.i = phi i1 [ %19, %15 ], [ false, %20 ]
  call void @llvm.lifetime.end.p0(i64 40, ptr nonnull %5)
  ret i1 %.0.i.i
}